; Function Attrs: mustprogress nounwind uwtable
define dso_local void @_ZN17cmScriptGeneratorC2ENSt7__cxx1112basic_stringIcSt11char_traitsIcESaIcEEESt6vectorIS5_SaIS5_EE(ptr noundef nonnull align 8 dereferenceable(105) %0, ptr noundef nonnull %1, ptr nocapture noundef %2) unnamed_addr #3 align 2 {
  store ptr getelementptr inbounds ({ [10 x ptr] }, ptr @_ZTV17cmScriptGenerator, i64 0, i32 0, i64 2), ptr %0, align 8
  %4 = getelementptr inbounds i8, ptr %0, i64 8
  tail call void @_ZNSt7__cxx1112basic_stringIcSt11char_traitsIcESaIcEEC1EOS4_(ptr noundef nonnull align 8 dereferenceable(32) %4, ptr noundef nonnull align 8 dereferenceable(32) %1) #11
  %5 = getelementptr inbounds i8, ptr %0, i64 40
  %6 = load ptr, ptr %2, align 8
  store ptr %6, ptr %5, align 8
  %7 = getelementptr inbounds i8, ptr %0, i64 48
  %8 = getelementptr inbounds i8, ptr %2, i64 8
  %9 = load ptr, ptr %8, align 8
  store ptr %9, ptr %7, align 8
  %10 = getelementptr inbounds i8, ptr %0, i64 56
  %11 = getelementptr inbounds i8, ptr %2, i64 16
  %12 = load ptr, ptr %11, align 8
  store ptr %12, ptr %10, align 8
  tail call void @llvm.memset.p0.i64(ptr noundef nonnull align 8 dereferenceable(24) %2, i8 0, i64 24, i1 false)
  %13 = getelementptr inbounds i8, ptr %0, i64 64
  tail call void @_ZNSt7__cxx1112basic_stringIcSt11char_traitsIcESaIcEEC1Ev(ptr noundef nonnull align 8 dereferenceable(32) %13) #11
  %14 = getelementptr inbounds i8, ptr %0, i64 96
  store ptr null, ptr %14, align 8
  %15 = getelementptr inbounds i8, ptr %0, i64 104
  store i8 0, ptr %15, align 8
  ret void
}